; Function Attrs: mustprogress uwtable
define void @_ZN6icu_7518CurrencyPluralInfoC2ER10UErrorCode(ptr noundef nonnull align 8 dereferenceable(36) %this, ptr noundef nonnull align 4 dereferenceable(4) %status) unnamed_addr #1 align 2 personality ptr @__gxx_personality_v0 {
entry:
  store ptr getelementptr inbounds ({ [5 x ptr] }, ptr @_ZTVN6icu_7518CurrencyPluralInfoE, i64 0, i32 0, i64 2), ptr %this, align 8
  %fPluralCountToCurrencyUnitPattern = getelementptr inbounds i8, ptr %this, i64 8
  %fPluralRules = getelementptr inbounds i8, ptr %this, i64 16
  %fLocale = getelementptr inbounds i8, ptr %this, i64 24
  tail call void @llvm.memset.p0.i64(ptr noundef nonnull align 8 dereferenceable(28) %fPluralCountToCurrencyUnitPattern, i8 0, i64 28, i1 false)
  %call = invoke noundef nonnull align 8 dereferenceable(217) ptr @_ZN6icu_756Locale10getDefaultEv()
          to label %invoke.cont unwind label %lpad

invoke.cont:                                      ; preds = %entry
  %0 = load i32, ptr %status, align 4
  %cmp.i.i = icmp slt i32 %0, 1
  br i1 %cmp.i.i, label %if.end.i, label %invoke.cont2

if.end.i:                                         ; preds = %invoke.cont
  %1 = load ptr, ptr %fLocale, align 8
  %isnull.i = icmp eq ptr %1, null
  br i1 %isnull.i, label %delete.end.i, label %delete.notnull.i

delete.notnull.i:                                 ; preds = %if.end.i
  %vtable.i = load ptr, ptr %1, align 8
  %vfn.i = getelementptr inbounds i8, ptr %vtable.i, i64 8
  %2 = load ptr, ptr %vfn.i, align 8
  tail call void %2(ptr noundef nonnull align 8 dereferenceable(217) %1) #10
  br label %delete.end.i

delete.end.i:                                     ; preds = %delete.notnull.i, %if.end.i
  store ptr null, ptr %fLocale, align 8
  %3 = load ptr, ptr %fPluralRules, align 8
  %isnull3.i = icmp eq ptr %3, null
  br i1 %isnull3.i, label %delete.end7.i, label %delete.notnull4.i

delete.notnull4.i:                                ; preds = %delete.end.i
  %vtable5.i = load ptr, ptr %3, align 8
  %vfn6.i = getelementptr inbounds i8, ptr %vtable5.i, i64 8
  %4 = load ptr, ptr %vfn6.i, align 8
  tail call void %4(ptr noundef nonnull align 8 dereferenceable(28) %3) #10
  br label %delete.end7.i

delete.end7.i:                                    ; preds = %delete.notnull4.i, %delete.end.i
  store ptr null, ptr %fPluralRules, align 8
  %call9.i1 = invoke noundef ptr @_ZNK6icu_756Locale5cloneEv(ptr noundef nonnull align 8 dereferenceable(217) %call)
          to label %call9.i.noexc unwind label %lpad

call9.i.noexc:                                    ; preds = %delete.end7.i
  store ptr %call9.i1, ptr %fLocale, align 8
  %cmp.i = icmp eq ptr %call9.i1, null
  br i1 %cmp.i, label %invoke.cont2.sink.split, label %if.end13.i

if.end13.i:                                       ; preds = %call9.i.noexc
  %fIsBogus.i.i = getelementptr inbounds i8, ptr %call, i64 216
  %5 = load i8, ptr %fIsBogus.i.i, align 8
  %tobool15.not.i = icmp eq i8 %5, 0
  br i1 %tobool15.not.i, label %land.lhs.true.i, label %if.end20.i

land.lhs.true.i:                                  ; preds = %if.end13.i
  %fIsBogus.i9.i = getelementptr inbounds i8, ptr %call9.i1, i64 216
  %6 = load i8, ptr %fIsBogus.i9.i, align 8
  %tobool18.not.i = icmp eq i8 %6, 0
  br i1 %tobool18.not.i, label %if.end20.i, label %invoke.cont2.sink.split

if.end20.i:                                       ; preds = %land.lhs.true.i, %if.end13.i
  %call21.i2 = invoke noundef ptr @_ZN6icu_7511PluralRules9forLocaleERKNS_6LocaleER10UErrorCode(ptr noundef nonnull align 8 dereferenceable(217) %call, ptr noundef nonnull align 4 dereferenceable(4) %status)
          to label %call21.i.noexc unwind label %lpad

call21.i.noexc:                                   ; preds = %if.end20.i
  store ptr %call21.i2, ptr %fPluralRules, align 8
  invoke void @_ZN6icu_7518CurrencyPluralInfo26setupCurrencyPluralPatternERKNS_6LocaleER10UErrorCode(ptr noundef nonnull align 8 dereferenceable(36) %this, ptr noundef nonnull align 8 dereferenceable(217) %call, ptr noundef nonnull align 4 dereferenceable(4) %status)
          to label %invoke.cont2 unwind label %lpad

invoke.cont2.sink.split:                          ; preds = %land.lhs.true.i, %call9.i.noexc
  store i32 7, ptr %status, align 4
  br label %invoke.cont2

invoke.cont2:                                     ; preds = %invoke.cont2.sink.split, %invoke.cont, %call21.i.noexc
  ret void

lpad:                                             ; preds = %call21.i.noexc, %if.end20.i, %delete.end7.i, %entry
  %7 = landingpad { ptr, i32 }
          cleanup
  tail call void @_ZN6icu_757UObjectD2Ev(ptr noundef nonnull align 8 dereferenceable(8) %this) #10
  resume { ptr, i32 } %7
}